target datalayout = "e-m:e-p270:32:32-p271:32:32-p272:64:64-i64:64-i128:128-f80:128-n8:16:32:64-S128"
target triple = "x86_64-pc-linux-gnu"

%struct.function_st = type { i32, ptr, ptr, ptr, ptr, ptr }
%struct.DISPLAY_COLUMNS = type { i32, i32 }

@bio_err = dso_local global ptr null, align 8
@.str.5 = private unnamed_addr constant [7 x i8] c"--help\00", align 1
@.str.21 = private unnamed_addr constant [28 x i8] c"%s: Use -help for summary.\0A\00", align 1
@.str.22 = private unnamed_addr constant [11 x i8] c"Usage: %s\0A\00", align 1
@functions = external global [0 x %struct.function_st], align 8
@.str.23 = private unnamed_addr constant [23 x i8] c"%s:\0A\0AStandard commands\00", align 1
@.str.24 = private unnamed_addr constant [2 x i8] c"\0A\00", align 1
@.str.25 = private unnamed_addr constant [68 x i8] c"\0AMessage Digest commands (see the `dgst' command for more details)\0A\00", align 1
@.str.26 = private unnamed_addr constant [59 x i8] c"\0ACipher commands (see the `enc' command for more details)\0A\00", align 1
@.str.27 = private unnamed_addr constant [5 x i8] c"%-*s\00", align 1
@.str.28 = private unnamed_addr constant [3 x i8] c"\0A\0A\00", align 1

; Function Attrs: nounwind uwtable
define dso_local i32 @help_main(i32 noundef %0, ptr noundef %1) #0 {
  %3 = alloca i32, align 4
  %4 = alloca i32, align 4
  %5 = alloca ptr, align 8
  %6 = alloca ptr, align 8
  %7 = alloca i32, align 4
  %8 = alloca i32, align 4
  %9 = alloca i32, align 4
  %10 = alloca ptr, align 8
  %11 = alloca i32, align 4
  %12 = alloca %struct.DISPLAY_COLUMNS, align 4
  %13 = alloca [3 x ptr], align 16
  %14 = alloca i32, align 4
  store i32 %0, ptr %4, align 4, !tbaa !4
  store ptr %1, ptr %5, align 8, !tbaa !8
  call void @llvm.lifetime.start.p0(i64 8, ptr %6) #8
  call void @llvm.lifetime.start.p0(i64 4, ptr %7) #8
  call void @llvm.lifetime.start.p0(i64 4, ptr %8) #8
  call void @llvm.lifetime.start.p0(i64 4, ptr %9) #8
  call void @llvm.lifetime.start.p0(i64 8, ptr %10) #8
  call void @llvm.lifetime.start.p0(i64 4, ptr %11) #8
  call void @llvm.lifetime.start.p0(i64 8, ptr %12) #8
  call void @llvm.lifetime.start.p0(i64 24, ptr %13) #8
  %15 = load i32, ptr %4, align 4, !tbaa !4
  %16 = load ptr, ptr %5, align 8, !tbaa !8
  %17 = call ptr @opt_init(i32 noundef %15, ptr noundef %16, ptr noundef @help_options)
  store ptr %17, ptr %10, align 8, !tbaa !18
  br label %18

18:                                               ; preds = %28, %2
  %19 = call i32 @opt_next()
  store i32 %19, ptr %11, align 4, !tbaa !4
  %20 = icmp ne i32 %19, 0
  br i1 %20, label %21, label %29

21:                                               ; preds = %18
  %22 = load i32, ptr %11, align 4, !tbaa !4
  switch i32 %22, label %28 [
    i32 -1, label %23
    i32 0, label %23
    i32 1, label %27
  ]

23:                                               ; preds = %21, %21
  %24 = load ptr, ptr @bio_err, align 8, !tbaa !16
  %25 = load ptr, ptr %10, align 8, !tbaa !18
  %26 = call i32 (ptr, ptr, ...) @BIO_printf(ptr noundef %24, ptr noundef @.str.21, ptr noundef %25)
  store i32 1, ptr %3, align 4
  store i32 1, ptr %14, align 4
  br label %111

27:                                               ; preds = %21
  call void @opt_help(ptr noundef @help_options)
  store i32 0, ptr %3, align 4
  store i32 1, ptr %14, align 4
  br label %111

28:                                               ; preds = %21
  br label %18, !llvm.loop !33

29:                                               ; preds = %18
  %30 = call i32 @opt_num_rest()
  %31 = icmp eq i32 %30, 1
  br i1 %31, label %32, label %42

32:                                               ; preds = %29
  %33 = call ptr @opt_rest()
  %34 = getelementptr inbounds ptr, ptr %33, i64 0
  %35 = load ptr, ptr %34, align 8, !tbaa !18
  %36 = getelementptr inbounds [3 x ptr], ptr %13, i64 0, i64 0
  store ptr %35, ptr %36, align 16, !tbaa !18
  %37 = getelementptr inbounds [3 x ptr], ptr %13, i64 0, i64 1
  store ptr @.str.5, ptr %37, align 8, !tbaa !18
  %38 = getelementptr inbounds [3 x ptr], ptr %13, i64 0, i64 2
  store ptr null, ptr %38, align 16, !tbaa !18
  %39 = call ptr @prog_init()
  %40 = getelementptr inbounds [3 x ptr], ptr %13, i64 0, i64 0
  %41 = call i32 @do_cmd(ptr noundef %39, i32 noundef 2, ptr noundef %40)
  store i32 %41, ptr %3, align 4
  store i32 1, ptr %14, align 4
  br label %111

42:                                               ; preds = %29
  %43 = call i32 @opt_check_rest_arg(ptr noundef null)
  %44 = icmp ne i32 %43, 0
  br i1 %44, label %49, label %45

45:                                               ; preds = %42
  %46 = load ptr, ptr @bio_err, align 8, !tbaa !16
  %47 = load ptr, ptr %10, align 8, !tbaa !18
  %48 = call i32 (ptr, ptr, ...) @BIO_printf(ptr noundef %46, ptr noundef @.str.22, ptr noundef %47)
  store i32 1, ptr %3, align 4
  store i32 1, ptr %14, align 4
  br label %111

49:                                               ; preds = %42
  call void @calculate_columns(ptr noundef @functions, ptr noundef %12)
  %50 = load ptr, ptr @bio_err, align 8, !tbaa !16
  %51 = load ptr, ptr %10, align 8, !tbaa !18
  %52 = call i32 (ptr, ptr, ...) @BIO_printf(ptr noundef %50, ptr noundef @.str.23, ptr noundef %51)
  store i32 0, ptr %7, align 4, !tbaa !4
  store i32 0, ptr %9, align 4, !tbaa !4
  store ptr @functions, ptr %6, align 8, !tbaa !23
  br label %53

53:                                               ; preds = %105, %49
  %54 = load ptr, ptr %6, align 8, !tbaa !23
  %55 = getelementptr inbounds nuw %struct.function_st, ptr %54, i32 0, i32 1
  %56 = load ptr, ptr %55, align 8, !tbaa !20
  %57 = icmp ne ptr %56, null
  br i1 %57, label %58, label %108

58:                                               ; preds = %53
  store i32 0, ptr %8, align 4, !tbaa !4
  %59 = load i32, ptr %7, align 4, !tbaa !4
  %60 = add nsw i32 %59, 1
  store i32 %60, ptr %7, align 4, !tbaa !4
  %61 = getelementptr inbounds nuw %struct.DISPLAY_COLUMNS, ptr %12, i32 0, i32 0
  %62 = load i32, ptr %61, align 4, !tbaa !34
  %63 = srem i32 %59, %62
  %64 = icmp eq i32 %63, 0
  br i1 %64, label %65, label %68

65:                                               ; preds = %58
  %66 = load ptr, ptr @bio_err, align 8, !tbaa !16
  %67 = call i32 (ptr, ptr, ...) @BIO_printf(ptr noundef %66, ptr noundef @.str.24)
  store i32 1, ptr %8, align 4, !tbaa !4
  br label %68

68:                                               ; preds = %65, %58
  %69 = load ptr, ptr %6, align 8, !tbaa !23
  %70 = getelementptr inbounds nuw %struct.function_st, ptr %69, i32 0, i32 0
  %71 = load i32, ptr %70, align 8, !tbaa !30
  %72 = load i32, ptr %9, align 4, !tbaa !4
  %73 = icmp ne i32 %71, %72
  br i1 %73, label %74, label %97

74:                                               ; preds = %68
  %75 = load ptr, ptr %6, align 8, !tbaa !23
  %76 = getelementptr inbounds nuw %struct.function_st, ptr %75, i32 0, i32 0
  %77 = load i32, ptr %76, align 8, !tbaa !30
  store i32 %77, ptr %9, align 4, !tbaa !4
  %78 = load i32, ptr %8, align 4, !tbaa !4
  %79 = icmp ne i32 %78, 0
  br i1 %79, label %83, label %80

80:                                               ; preds = %74
  %81 = load ptr, ptr @bio_err, align 8, !tbaa !16
  %82 = call i32 (ptr, ptr, ...) @BIO_printf(ptr noundef %81, ptr noundef @.str.24)
  br label %83

83:                                               ; preds = %80, %74
  %84 = load i32, ptr %9, align 4, !tbaa !4
  %85 = icmp eq i32 %84, 2
  br i1 %85, label %86, label %89

86:                                               ; preds = %83
  store i32 1, ptr %7, align 4, !tbaa !4
  %87 = load ptr, ptr @bio_err, align 8, !tbaa !16
  %88 = call i32 (ptr, ptr, ...) @BIO_printf(ptr noundef %87, ptr noundef @.str.25)
  br label %96

89:                                               ; preds = %83
  %90 = load i32, ptr %9, align 4, !tbaa !4
  %91 = icmp eq i32 %90, 3
  br i1 %91, label %92, label %95

92:                                               ; preds = %89
  store i32 1, ptr %7, align 4, !tbaa !4
  %93 = load ptr, ptr @bio_err, align 8, !tbaa !16
  %94 = call i32 (ptr, ptr, ...) @BIO_printf(ptr noundef %93, ptr noundef @.str.26)
  br label %95

95:                                               ; preds = %92, %89
  br label %96

96:                                               ; preds = %95, %86
  br label %97

97:                                               ; preds = %96, %68
  %98 = load ptr, ptr @bio_err, align 8, !tbaa !16
  %99 = getelementptr inbounds nuw %struct.DISPLAY_COLUMNS, ptr %12, i32 0, i32 1
  %100 = load i32, ptr %99, align 4, !tbaa !36
  %101 = load ptr, ptr %6, align 8, !tbaa !23
  %102 = getelementptr inbounds nuw %struct.function_st, ptr %101, i32 0, i32 1
  %103 = load ptr, ptr %102, align 8, !tbaa !20
  %104 = call i32 (ptr, ptr, ...) @BIO_printf(ptr noundef %98, ptr noundef @.str.27, i32 noundef %100, ptr noundef %103)
  br label %105

105:                                              ; preds = %97
  %106 = load ptr, ptr %6, align 8, !tbaa !23
  %107 = getelementptr inbounds nuw %struct.function_st, ptr %106, i32 1
  store ptr %107, ptr %6, align 8, !tbaa !23
  br label %53, !llvm.loop !37

108:                                              ; preds = %53
  %109 = load ptr, ptr @bio_err, align 8, !tbaa !16
  %110 = call i32 (ptr, ptr, ...) @BIO_printf(ptr noundef %109, ptr noundef @.str.28)
  store i32 0, ptr %3, align 4
  store i32 1, ptr %14, align 4
  br label %111

111:                                              ; preds = %108, %45, %32, %27, %23
  call void @llvm.lifetime.end.p0(i64 24, ptr %13) #8
  call void @llvm.lifetime.end.p0(i64 8, ptr %12) #8
  call void @llvm.lifetime.end.p0(i64 4, ptr %11) #8
  call void @llvm.lifetime.end.p0(i64 8, ptr %10) #8
  call void @llvm.lifetime.end.p0(i64 4, ptr %9) #8
  call void @llvm.lifetime.end.p0(i64 4, ptr %8) #8
  call void @llvm.lifetime.end.p0(i64 4, ptr %7) #8
  call void @llvm.lifetime.end.p0(i64 8, ptr %6) #8
  %112 = load i32, ptr %3, align 4
  ret i32 %112
}