; Function Attrs: nounwind uwtable
define dso_local i32 @help_main(i32 noundef %0, ptr noundef %1) local_unnamed_addr #3 {
  %3 = alloca %struct.DISPLAY_COLUMNS, align 4
  %4 = alloca [3 x ptr], align 16
  call void @llvm.lifetime.start.p0(i64 8, ptr nonnull %3) #12
  call void @llvm.lifetime.start.p0(i64 24, ptr nonnull %4) #12
  %5 = tail call ptr @opt_init(i32 noundef %0, ptr noundef %1, ptr noundef nonnull @help_options) #12
  br label %6

6:                                                ; preds = %6, %2
  %7 = tail call i32 @opt_next() #12
  switch i32 %7, label %6 [
    i32 0, label %12
    i32 -1, label %8
    i32 1, label %11
  ]

8:                                                ; preds = %6
  %9 = load ptr, ptr @bio_err, align 8, !tbaa !4
  %10 = tail call i32 (ptr, ptr, ...) @BIO_printf(ptr noundef %9, ptr noundef nonnull @.str.21, ptr noundef %5) #12
  br label %59

11:                                               ; preds = %6
  tail call void @opt_help(ptr noundef nonnull @help_options) #12
  br label %59

12:                                               ; preds = %6
  %13 = tail call i32 @opt_num_rest() #12
  %14 = icmp eq i32 %13, 1
  br i1 %14, label %15, label %22

15:                                               ; preds = %12
  %16 = tail call ptr @opt_rest() #12
  %17 = load ptr, ptr %16, align 8, !tbaa !9
  store ptr %17, ptr %4, align 16, !tbaa !9
  %18 = getelementptr inbounds nuw i8, ptr %4, i64 8
  store ptr @.str.5, ptr %18, align 8, !tbaa !9
  %19 = getelementptr inbounds nuw i8, ptr %4, i64 16
  store ptr null, ptr %19, align 16, !tbaa !9
  %20 = tail call fastcc ptr @prog_init()
  %21 = call fastcc i32 @do_cmd(ptr noundef %20, i32 noundef 2, ptr noundef nonnull %4)
  br label %59

22:                                               ; preds = %12
  %23 = tail call i32 @opt_check_rest_arg(ptr noundef null) #12
  %.not23 = icmp eq i32 %23, 0
  br i1 %.not23, label %24, label %27

24:                                               ; preds = %22
  %25 = load ptr, ptr @bio_err, align 8, !tbaa !4
  %26 = tail call i32 (ptr, ptr, ...) @BIO_printf(ptr noundef %25, ptr noundef nonnull @.str.22, ptr noundef %5) #12
  br label %59

27:                                               ; preds = %22
  call void @calculate_columns(ptr noundef nonnull @functions, ptr noundef nonnull %3) #12
  %28 = load ptr, ptr @bio_err, align 8, !tbaa !4
  %29 = call i32 (ptr, ptr, ...) @BIO_printf(ptr noundef %28, ptr noundef nonnull @.str.23, ptr noundef %5) #12
  %30 = load ptr, ptr getelementptr inbounds nuw (i8, ptr @functions, i64 8), align 8, !tbaa !11
  %.not2430 = icmp eq ptr %30, null
  br i1 %.not2430, label %._crit_edge, label %.lr.ph

.lr.ph:                                           ; preds = %27
  %31 = getelementptr inbounds nuw i8, ptr %3, i64 4
  br label %32

32:                                               ; preds = %.lr.ph, %49
  %33 = phi ptr [ getelementptr inbounds nuw (i8, ptr @functions, i64 8), %.lr.ph ], [ %55, %49 ]
  %.01633 = phi ptr [ @functions, %.lr.ph ], [ %54, %49 ]
  %.01732 = phi i32 [ 0, %.lr.ph ], [ %.1, %49 ]
  %.01931 = phi i32 [ 0, %.lr.ph ], [ %.120, %49 ]
  %34 = add nsw i32 %.01931, 1
  %35 = load i32, ptr %3, align 4, !tbaa !24
  %36 = srem i32 %.01931, %35
  %.not27 = icmp eq i32 %36, 0
  br i1 %.not27, label %37, label %.thread

37:                                               ; preds = %32
  %38 = load ptr, ptr @bio_err, align 8, !tbaa !4
  %39 = call i32 (ptr, ptr, ...) @BIO_printf(ptr noundef %38, ptr noundef nonnull @.str.24) #12
  %40 = load i32, ptr %.01633, align 8, !tbaa !20
  %.not25 = icmp eq i32 %40, %.01732
  br i1 %.not25, label %49, label %44

.thread:                                          ; preds = %32
  %41 = load i32, ptr %.01633, align 8, !tbaa !20
  %.not2528 = icmp eq i32 %41, %.01732
  br i1 %.not2528, label %49, label %.thread29

.thread29:                                        ; preds = %.thread
  %42 = load ptr, ptr @bio_err, align 8, !tbaa !4
  %43 = call i32 (ptr, ptr, ...) @BIO_printf(ptr noundef %42, ptr noundef nonnull @.str.24) #12
  br label %44

44:                                               ; preds = %37, %.thread29
  %45 = phi i32 [ %41, %.thread29 ], [ %40, %37 ]
  switch i32 %45, label %49 [
    i32 2, label %.sink.split
    i32 3, label %46
  ]

46:                                               ; preds = %44
  br label %.sink.split

.sink.split:                                      ; preds = %44, %46
  %.str.25.sink = phi ptr [ @.str.26, %46 ], [ @.str.25, %44 ]
  %47 = load ptr, ptr @bio_err, align 8, !tbaa !4
  %48 = call i32 (ptr, ptr, ...) @BIO_printf(ptr noundef %47, ptr noundef nonnull %.str.25.sink) #12
  br label %49

49:                                               ; preds = %.sink.split, %.thread, %44, %37
  %.120 = phi i32 [ %34, %37 ], [ %34, %44 ], [ %34, %.thread ], [ 1, %.sink.split ]
  %.1 = phi i32 [ %.01732, %37 ], [ %45, %44 ], [ %.01732, %.thread ], [ %45, %.sink.split ]
  %50 = load ptr, ptr @bio_err, align 8, !tbaa !4
  %51 = load i32, ptr %31, align 4, !tbaa !26
  %52 = load ptr, ptr %33, align 8, !tbaa !11
  %53 = call i32 (ptr, ptr, ...) @BIO_printf(ptr noundef %50, ptr noundef nonnull @.str.27, i32 noundef %51, ptr noundef %52) #12
  %54 = getelementptr inbounds nuw i8, ptr %.01633, i64 48
  %55 = getelementptr inbounds nuw i8, ptr %.01633, i64 56
  %56 = load ptr, ptr %55, align 8, !tbaa !11
  %.not24 = icmp eq ptr %56, null
  br i1 %.not24, label %._crit_edge, label %32, !llvm.loop !27

._crit_edge:                                      ; preds = %49, %27
  %57 = load ptr, ptr @bio_err, align 8, !tbaa !4
  %58 = call i32 (ptr, ptr, ...) @BIO_printf(ptr noundef %57, ptr noundef nonnull @.str.28) #12
  br label %59

59:                                               ; preds = %._crit_edge, %24, %15, %11, %8
  %.0 = phi i32 [ 0, %11 ], [ 1, %8 ], [ %21, %15 ], [ 0, %._crit_edge ], [ 1, %24 ]
  call void @llvm.lifetime.end.p0(i64 24, ptr nonnull %4) #12
  call void @llvm.lifetime.end.p0(i64 8, ptr nonnull %3) #12
  ret i32 %.0
}